target datalayout = "e-m:e-p270:32:32-p271:32:32-p272:64:64-i64:64-i128:128-f80:128-n8:16:32:64-S128"
target triple = "x86_64-pc-linux-gnu"

%struct.LogicalTape = type { ptr, i8, i8, i8, i64, i64, i64, i64, ptr, i32, i32, i32, i32, ptr, i32, i32 }

; Function Attrs: nounwind uwtable
define internal void @ltsInitReadBuffer(ptr noundef %0) #0 {
  %2 = alloca ptr, align 8
  store ptr %0, ptr %2, align 8
  %3 = load ptr, ptr %2, align 8
  %4 = getelementptr inbounds nuw %struct.LogicalTape, ptr %3, i32 0, i32 9
  %5 = load i32, ptr %4, align 8
  %6 = sext i32 %5 to i64
  %7 = call ptr @palloc(i64 noundef %6)
  %8 = load ptr, ptr %2, align 8
  %9 = getelementptr inbounds nuw %struct.LogicalTape, ptr %8, i32 0, i32 8
  store ptr %7, ptr %9, align 8
  %10 = load ptr, ptr %2, align 8
  %11 = getelementptr inbounds nuw %struct.LogicalTape, ptr %10, i32 0, i32 4
  %12 = load i64, ptr %11, align 8
  %13 = load ptr, ptr %2, align 8
  %14 = getelementptr inbounds nuw %struct.LogicalTape, ptr %13, i32 0, i32 6
  store i64 %12, ptr %14, align 8
  %15 = load ptr, ptr %2, align 8
  %16 = getelementptr inbounds nuw %struct.LogicalTape, ptr %15, i32 0, i32 11
  store i32 0, ptr %16, align 8
  %17 = load ptr, ptr %2, align 8
  %18 = getelementptr inbounds nuw %struct.LogicalTape, ptr %17, i32 0, i32 12
  store i32 0, ptr %18, align 4
  %19 = load ptr, ptr %2, align 8
  %20 = call zeroext i1 @ltsReadFillBuffer(ptr noundef %19)
  ret void
}

; Function Attrs: nounwind uwtable
define dso_local i64 @LogicalTapeRead(ptr noundef %0, ptr noundef %1, i64 noundef %2) #0 {
  %4 = alloca ptr, align 8
  %5 = alloca ptr, align 8
  %6 = alloca i64, align 8
  %7 = alloca i64, align 8
  %8 = alloca i64, align 8
  store ptr %0, ptr %4, align 8
  store ptr %1, ptr %5, align 8
  store i64 %2, ptr %6, align 8
  call void @llvm.lifetime.start.p0(i64 8, ptr %7) #7
  store i64 0, ptr %7, align 8
  call void @llvm.lifetime.start.p0(i64 8, ptr %8) #7
  %9 = load ptr, ptr %4, align 8
  %10 = getelementptr inbounds nuw %struct.LogicalTape, ptr %9, i32 0, i32 8
  %11 = load ptr, ptr %10, align 8
  %12 = icmp eq ptr %11, null
  br i1 %12, label %13, label %15

13:                                               ; preds = %3
  %14 = load ptr, ptr %4, align 8
  call void @ltsInitReadBuffer(ptr noundef %14)
  br label %15

15:                                               ; preds = %13, %3
  br label %16

16:                                               ; preds = %46, %15
  %17 = load i64, ptr %6, align 8
  %18 = icmp ugt i64 %17, 0
  br i1 %18, label %19, label %73

19:                                               ; preds = %16
  %20 = load ptr, ptr %4, align 8
  %21 = getelementptr inbounds nuw %struct.LogicalTape, ptr %20, i32 0, i32 11
  %22 = load i32, ptr %21, align 8
  %23 = load ptr, ptr %4, align 8
  %24 = getelementptr inbounds nuw %struct.LogicalTape, ptr %23, i32 0, i32 12
  %25 = load i32, ptr %24, align 4
  %26 = icmp sge i32 %22, %25
  br i1 %26, label %27, label %32

27:                                               ; preds = %19
  %28 = load ptr, ptr %4, align 8
  %29 = call zeroext i1 @ltsReadFillBuffer(ptr noundef %28)
  br i1 %29, label %31, label %30

30:                                               ; preds = %27
  br label %73

31:                                               ; preds = %27
  br label %32

32:                                               ; preds = %31, %19
  %33 = load ptr, ptr %4, align 8
  %34 = getelementptr inbounds nuw %struct.LogicalTape, ptr %33, i32 0, i32 12
  %35 = load i32, ptr %34, align 4
  %36 = load ptr, ptr %4, align 8
  %37 = getelementptr inbounds nuw %struct.LogicalTape, ptr %36, i32 0, i32 11
  %38 = load i32, ptr %37, align 8
  %39 = sub i32 %35, %38
  %40 = sext i32 %39 to i64
  store i64 %40, ptr %8, align 8
  %41 = load i64, ptr %8, align 8
  %42 = load i64, ptr %6, align 8
  %43 = icmp ugt i64 %41, %42
  br i1 %43, label %44, label %46

44:                                               ; preds = %32
  %45 = load i64, ptr %6, align 8
  store i64 %45, ptr %8, align 8
  br label %46

46:                                               ; preds = %44, %32
  %47 = load ptr, ptr %5, align 8
  %48 = load ptr, ptr %4, align 8
  %49 = getelementptr inbounds nuw %struct.LogicalTape, ptr %48, i32 0, i32 8
  %50 = load ptr, ptr %49, align 8
  %51 = load ptr, ptr %4, align 8
  %52 = getelementptr inbounds nuw %struct.LogicalTape, ptr %51, i32 0, i32 11
  %53 = load i32, ptr %52, align 8
  %54 = sext i32 %53 to i64
  %55 = getelementptr inbounds i8, ptr %50, i64 %54
  %56 = load i64, ptr %8, align 8
  call void @llvm.memcpy.p0.p0.i64(ptr align 1 %47, ptr align 1 %55, i64 %56, i1 false)
  %57 = load i64, ptr %8, align 8
  %58 = load ptr, ptr %4, align 8
  %59 = getelementptr inbounds nuw %struct.LogicalTape, ptr %58, i32 0, i32 11
  %60 = load i32, ptr %59, align 8
  %61 = sext i32 %60 to i64
  %62 = add i64 %61, %57
  %63 = trunc i64 %62 to i32
  store i32 %63, ptr %59, align 8
  %64 = load ptr, ptr %5, align 8
  %65 = load i64, ptr %8, align 8
  %66 = getelementptr inbounds nuw i8, ptr %64, i64 %65
  store ptr %66, ptr %5, align 8
  %67 = load i64, ptr %8, align 8
  %68 = load i64, ptr %6, align 8
  %69 = sub i64 %68, %67
  store i64 %69, ptr %6, align 8
  %70 = load i64, ptr %8, align 8
  %71 = load i64, ptr %7, align 8
  %72 = add i64 %71, %70
  store i64 %72, ptr %7, align 8
  br label %16, !llvm.loop !12

73:                                               ; preds = %30, %16
  %74 = load i64, ptr %7, align 8
  call void @llvm.lifetime.end.p0(i64 8, ptr %8) #7
  call void @llvm.lifetime.end.p0(i64 8, ptr %7) #7
  ret i64 %74
}