; Function Attrs: nounwind uwtable
define dso_local i64 @LogicalTapeRead(ptr noundef captures(none) %0, ptr noundef writeonly captures(none) %1, i64 noundef %2) local_unnamed_addr #0 {
  %4 = getelementptr inbounds nuw i8, ptr %0, i64 48
  %5 = load ptr, ptr %4, align 8
  %6 = icmp eq ptr %5, null
  br i1 %6, label %7, label %18

7:                                                ; preds = %3
  %8 = getelementptr inbounds nuw i8, ptr %0, i64 56
  %9 = load i32, ptr %8, align 8
  %10 = sext i32 %9 to i64
  %11 = tail call ptr @palloc(i64 noundef %10) #10
  store ptr %11, ptr %4, align 8
  %12 = getelementptr inbounds nuw i8, ptr %0, i64 16
  %13 = load i64, ptr %12, align 8
  %14 = getelementptr inbounds nuw i8, ptr %0, i64 32
  store i64 %13, ptr %14, align 8
  %15 = getelementptr inbounds nuw i8, ptr %0, i64 64
  store i32 0, ptr %15, align 8
  %16 = getelementptr inbounds nuw i8, ptr %0, i64 68
  store i32 0, ptr %16, align 4
  %17 = tail call fastcc zeroext i1 @ltsReadFillBuffer(ptr noundef nonnull %0)
  br label %18

18:                                               ; preds = %7, %3
  %.not28 = icmp eq i64 %2, 0
  br i1 %.not28, label %._crit_edge, label %.lr.ph

.lr.ph:                                           ; preds = %18
  %19 = getelementptr inbounds nuw i8, ptr %0, i64 64
  %20 = getelementptr inbounds nuw i8, ptr %0, i64 68
  %.pre = load i32, ptr %19, align 8
  br label %21

21:                                               ; preds = %.lr.ph, %26
  %22 = phi i32 [ %.pre, %.lr.ph ], [ %36, %26 ]
  %.02331 = phi i64 [ 0, %.lr.ph ], [ %39, %26 ]
  %.02430 = phi i64 [ %2, %.lr.ph ], [ %38, %26 ]
  %.02529 = phi ptr [ %1, %.lr.ph ], [ %37, %26 ]
  %23 = load i32, ptr %20, align 4
  %.not27 = icmp slt i32 %22, %23
  br i1 %.not27, label %26, label %24

24:                                               ; preds = %21
  %25 = tail call fastcc zeroext i1 @ltsReadFillBuffer(ptr noundef nonnull %0)
  br i1 %25, label %._crit_edge34, label %._crit_edge

._crit_edge34:                                    ; preds = %24
  %.pre35 = load i32, ptr %20, align 4
  %.pre36 = load i32, ptr %19, align 8
  br label %26

26:                                               ; preds = %._crit_edge34, %21
  %27 = phi i32 [ %.pre36, %._crit_edge34 ], [ %22, %21 ]
  %28 = phi i32 [ %.pre35, %._crit_edge34 ], [ %23, %21 ]
  %29 = sub i32 %28, %27
  %30 = sext i32 %29 to i64
  %spec.select = tail call i64 @llvm.umin.i64(i64 %.02430, i64 %30)
  %31 = load ptr, ptr %4, align 8
  %32 = sext i32 %27 to i64
  %33 = getelementptr inbounds i8, ptr %31, i64 %32
  tail call void @llvm.memcpy.p0.p0.i64(ptr align 1 %.02529, ptr align 1 %33, i64 %spec.select, i1 false)
  %34 = load i32, ptr %19, align 8
  %35 = trunc i64 %spec.select to i32
  %36 = add i32 %34, %35
  store i32 %36, ptr %19, align 8
  %37 = getelementptr inbounds nuw i8, ptr %.02529, i64 %spec.select
  %38 = sub i64 %.02430, %spec.select
  %39 = add i64 %spec.select, %.02331
  %.not = icmp eq i64 %38, 0
  br i1 %.not, label %._crit_edge, label %21, !llvm.loop !12

._crit_edge:                                      ; preds = %26, %24, %18
  %.023.lcssa = phi i64 [ 0, %18 ], [ %.02331, %24 ], [ %39, %26 ]
  ret i64 %.023.lcssa
}